target datalayout = "e-m:e-p270:32:32-p271:32:32-p272:64:64-i64:64-i128:128-f80:128-n8:16:32:64-S128"
target triple = "x86_64-unknown-linux-gnu"

%"class.icu_75::UMutex" = type { [40 x i8], %"struct.std::atomic", ptr }
%"struct.std::atomic" = type { %"struct.std::__atomic_base" }
%"struct.std::__atomic_base" = type { ptr }
%"class.icu_75::UObject" = type { ptr }
%"class.icu_75::ICULanguageBreakFactory" = type { %"class.icu_75::LanguageBreakFactory", ptr }
%"class.icu_75::LanguageBreakFactory" = type { ptr }
%"class.icu_75::Mutex" = type { ptr }
%"class.icu_75::UVector" = type { %"class.icu_75::UObject", i32, i32, ptr, ptr, ptr }

@_ZZN6icu_7523ICULanguageBreakFactory12getEngineForEiPKcE17gBreakEngineMutex = internal global %"class.icu_75::UMutex" zeroinitializer, align 8

; Function Attrs: mustprogress nounwind uwtable
define linkonce_odr noundef zeroext i1 @_ZN6icu_757UVector10hasDeleterEv(ptr noundef nonnull align 8 dereferenceable(40) %this) #0 comdat align 2 {
entry:
  %this.addr = alloca ptr, align 8
  store ptr %this, ptr %this.addr, align 8
  %this1 = load ptr, ptr %this.addr, align 8
  %deleter = getelementptr inbounds %"class.icu_75::UVector", ptr %this1, i32 0, i32 4
  %0 = load ptr, ptr %deleter, align 8
  %cmp = icmp ne ptr %0, null
  ret i1 %cmp
}

; Function Attrs: mustprogress nounwind uwtable
define internal noundef signext i8 @_ZL9U_SUCCESS10UErrorCode(i32 noundef %code) #0 {
entry:
  %code.addr = alloca i32, align 4
  store i32 %code, ptr %code.addr, align 4
  %0 = load i32, ptr %code.addr, align 4
  %cmp = icmp sle i32 %0, 0
  %conv = zext i1 %cmp to i8
  ret i8 %conv
}

; Function Attrs: mustprogress uwtable
define linkonce_odr noundef ptr @_ZN6icu_756UStack4pushEPvR10UErrorCode(ptr noundef nonnull align 8 dereferenceable(40) %this, ptr noundef %obj, ptr noundef nonnull align 4 dereferenceable(4) %status) #1 comdat align 2 {
entry:
  %retval = alloca ptr, align 8
  %this.addr = alloca ptr, align 8
  %obj.addr = alloca ptr, align 8
  %status.addr = alloca ptr, align 8
  store ptr %this, ptr %this.addr, align 8
  store ptr %obj, ptr %obj.addr, align 8
  store ptr %status, ptr %status.addr, align 8
  %this1 = load ptr, ptr %this.addr, align 8
  %call = call noundef zeroext i1 @_ZN6icu_757UVector10hasDeleterEv(ptr noundef nonnull align 8 dereferenceable(40) %this1)
  br i1 %call, label %if.then, label %if.else

if.then:                                          ; preds = %entry
  %0 = load ptr, ptr %obj.addr, align 8
  %1 = load ptr, ptr %status.addr, align 8
  call void @_ZN6icu_757UVector12adoptElementEPvR10UErrorCode(ptr noundef nonnull align 8 dereferenceable(40) %this1, ptr noundef %0, ptr noundef nonnull align 4 dereferenceable(4) %1)
  %2 = load ptr, ptr %status.addr, align 8
  %3 = load i32, ptr %2, align 4
  %call2 = call noundef signext i8 @_ZL9U_SUCCESS10UErrorCode(i32 noundef %3)
  %tobool = icmp ne i8 %call2, 0
  br i1 %tobool, label %cond.true, label %cond.false

cond.true:                                        ; preds = %if.then
  %4 = load ptr, ptr %obj.addr, align 8
  br label %cond.end

cond.false:                                       ; preds = %if.then
  br label %cond.end

cond.end:                                         ; preds = %cond.false, %cond.true
  %cond = phi ptr [ %4, %cond.true ], [ null, %cond.false ]
  store ptr %cond, ptr %retval, align 8
  br label %return

if.else:                                          ; preds = %entry
  %5 = load ptr, ptr %obj.addr, align 8
  %6 = load ptr, ptr %status.addr, align 8
  call void @_ZN6icu_757UVector10addElementEPvR10UErrorCode(ptr noundef nonnull align 8 dereferenceable(40) %this1, ptr noundef %5, ptr noundef nonnull align 4 dereferenceable(4) %6)
  %7 = load ptr, ptr %obj.addr, align 8
  store ptr %7, ptr %retval, align 8
  br label %return

return:                                           ; preds = %if.else, %cond.end
  %8 = load ptr, ptr %retval, align 8
  ret ptr %8
}

; Function Attrs: mustprogress nounwind uwtable
define linkonce_odr void @_ZN6icu_755MutexD2Ev(ptr noundef nonnull align 8 dereferenceable(8) %this) unnamed_addr #0 comdat align 2 personality ptr @__gxx_personality_v0 {
entry:
  %this.addr = alloca ptr, align 8
  store ptr %this, ptr %this.addr, align 8
  %this1 = load ptr, ptr %this.addr, align 8
  %fMutex = getelementptr inbounds %"class.icu_75::Mutex", ptr %this1, i32 0, i32 0
  %0 = load ptr, ptr %fMutex, align 8
  invoke void @umtx_unlock_75(ptr noundef %0)
          to label %invoke.cont unwind label %terminate.lpad

invoke.cont:                                      ; preds = %entry
  ret void

terminate.lpad:                                   ; preds = %entry
  %1 = landingpad { ptr, i32 }
          catch ptr null
  %2 = extractvalue { ptr, i32 } %1, 0
  call void @__clang_call_terminate(ptr %2) #10
  unreachable
}

; Function Attrs: mustprogress nounwind uwtable
define linkonce_odr noundef i32 @_ZNK6icu_757UVector4sizeEv(ptr noundef nonnull align 8 dereferenceable(40) %this) #0 comdat align 2 {
entry:
  %this.addr = alloca ptr, align 8
  store ptr %this, ptr %this.addr, align 8
  %this1 = load ptr, ptr %this.addr, align 8
  %count = getelementptr inbounds %"class.icu_75::UVector", ptr %this1, i32 0, i32 1
  %0 = load i32, ptr %count, align 8
  ret i32 %0
}

; Function Attrs: mustprogress uwtable
define linkonce_odr void @_ZN6icu_755MutexC2EPNS_6UMutexE(ptr noundef nonnull align 8 dereferenceable(8) %this, ptr noundef %mutex) unnamed_addr #1 comdat align 2 {
entry:
  %this.addr = alloca ptr, align 8
  %mutex.addr = alloca ptr, align 8
  store ptr %this, ptr %this.addr, align 8
  store ptr %mutex, ptr %mutex.addr, align 8
  %this1 = load ptr, ptr %this.addr, align 8
  %fMutex = getelementptr inbounds %"class.icu_75::Mutex", ptr %this1, i32 0, i32 0
  %0 = load ptr, ptr %mutex.addr, align 8
  store ptr %0, ptr %fMutex, align 8
  %fMutex2 = getelementptr inbounds %"class.icu_75::Mutex", ptr %this1, i32 0, i32 0
  %1 = load ptr, ptr %fMutex2, align 8
  call void @umtx_lock_75(ptr noundef %1)
  ret void
}

; Function Attrs: mustprogress nounwind uwtable
define internal noundef signext i8 @_ZL9U_FAILURE10UErrorCode(i32 noundef %code) #0 {
entry:
  %code.addr = alloca i32, align 4
  store i32 %code, ptr %code.addr, align 4
  %0 = load i32, ptr %code.addr, align 4
  %cmp = icmp sgt i32 %0, 0
  %conv = zext i1 %cmp to i8
  ret i8 %conv
}

; Function Attrs: mustprogress uwtable
define noundef ptr @_ZN6icu_7523ICULanguageBreakFactory12getEngineForEiPKc(ptr noundef nonnull align 8 dereferenceable(16) %this, i32 noundef %c, ptr noundef %locale) unnamed_addr #1 align 2 personality ptr @__gxx_personality_v0 {
entry:
  %retval = alloca ptr, align 8
  %this.addr = alloca ptr, align 8
  %c.addr = alloca i32, align 4
  %locale.addr = alloca ptr, align 8
  %lbe = alloca ptr, align 8
  %status = alloca i32, align 4
  %m = alloca %"class.icu_75::Mutex", align 8
  %i = alloca i32, align 4
  %exn.slot = alloca ptr, align 8
  %ehselector.slot = alloca i32, align 4
  %cleanup.dest.slot = alloca i32, align 4
  store ptr %this, ptr %this.addr, align 8
  store i32 %c, ptr %c.addr, align 4
  store ptr %locale, ptr %locale.addr, align 8
  %this1 = load ptr, ptr %this.addr, align 8
  store ptr null, ptr %lbe, align 8
  store i32 0, ptr %status, align 4
  call void @_ZN6icu_7523ICULanguageBreakFactory13ensureEnginesER10UErrorCode(ptr noundef nonnull align 8 dereferenceable(16) %this1, ptr noundef nonnull align 4 dereferenceable(4) %status)
  %0 = load i32, ptr %status, align 4
  %call = call noundef signext i8 @_ZL9U_FAILURE10UErrorCode(i32 noundef %0)
  %tobool = icmp ne i8 %call, 0
  br i1 %tobool, label %if.then, label %if.end

if.then:                                          ; preds = %entry
  store ptr null, ptr %retval, align 8
  br label %return

if.end:                                           ; preds = %entry
  call void @_ZN6icu_755MutexC2EPNS_6UMutexE(ptr noundef nonnull align 8 dereferenceable(8) %m, ptr noundef @_ZZN6icu_7523ICULanguageBreakFactory12getEngineForEiPKcE17gBreakEngineMutex)
  %fEngines = getelementptr inbounds %"class.icu_75::ICULanguageBreakFactory", ptr %this1, i32 0, i32 1
  %1 = load ptr, ptr %fEngines, align 8
  %call2 = invoke noundef i32 @_ZNK6icu_757UVector4sizeEv(ptr noundef nonnull align 8 dereferenceable(40) %1)
          to label %invoke.cont unwind label %lpad

invoke.cont:                                      ; preds = %if.end
  store i32 %call2, ptr %i, align 4
  br label %while.cond

while.cond:                                       ; preds = %if.end11, %invoke.cont
  %2 = load i32, ptr %i, align 4
  %dec = add nsw i32 %2, -1
  store i32 %dec, ptr %i, align 4
  %cmp = icmp sge i32 %dec, 0
  br i1 %cmp, label %while.body, label %while.end

while.body:                                       ; preds = %while.cond
  %fEngines3 = getelementptr inbounds %"class.icu_75::ICULanguageBreakFactory", ptr %this1, i32 0, i32 1
  %3 = load ptr, ptr %fEngines3, align 8
  %4 = load i32, ptr %i, align 4
  %call5 = invoke noundef ptr @_ZNK6icu_757UVector9elementAtEi(ptr noundef nonnull align 8 dereferenceable(40) %3, i32 noundef %4)
          to label %invoke.cont4 unwind label %lpad

invoke.cont4:                                     ; preds = %while.body
  store ptr %call5, ptr %lbe, align 8
  %5 = load ptr, ptr %lbe, align 8
  %cmp6 = icmp ne ptr %5, null
  br i1 %cmp6, label %land.lhs.true, label %if.end11

land.lhs.true:                                    ; preds = %invoke.cont4
  %6 = load ptr, ptr %lbe, align 8
  %7 = load i32, ptr %c.addr, align 4
  %8 = load ptr, ptr %locale.addr, align 8
  %vtable = load ptr, ptr %6, align 8
  %vfn = getelementptr inbounds ptr, ptr %vtable, i64 3
  %9 = load ptr, ptr %vfn, align 8
  %call8 = invoke noundef signext i8 %9(ptr noundef nonnull align 8 dereferenceable(8) %6, i32 noundef %7, ptr noundef %8)
          to label %invoke.cont7 unwind label %lpad

invoke.cont7:                                     ; preds = %land.lhs.true
  %tobool9 = icmp ne i8 %call8, 0
  br i1 %tobool9, label %if.then10, label %if.end11

if.then10:                                        ; preds = %invoke.cont7
  %10 = load ptr, ptr %lbe, align 8
  store ptr %10, ptr %retval, align 8
  store i32 1, ptr %cleanup.dest.slot, align 4
  br label %cleanup

lpad:                                             ; preds = %if.end21, %if.then17, %while.end, %land.lhs.true, %while.body, %if.end
  %11 = landingpad { ptr, i32 }
          cleanup
  %12 = extractvalue { ptr, i32 } %11, 0
  store ptr %12, ptr %exn.slot, align 8
  %13 = extractvalue { ptr, i32 } %11, 1
  store i32 %13, ptr %ehselector.slot, align 4
  call void @_ZN6icu_755MutexD2Ev(ptr noundef nonnull align 8 dereferenceable(8) %m) #8
  br label %eh.resume

if.end11:                                         ; preds = %invoke.cont7, %invoke.cont4
  br label %while.cond, !llvm.loop !6

while.end:                                        ; preds = %while.cond
  %14 = load i32, ptr %c.addr, align 4
  %15 = load ptr, ptr %locale.addr, align 8
  %vtable12 = load ptr, ptr %this1, align 8
  %vfn13 = getelementptr inbounds ptr, ptr %vtable12, i64 4
  %16 = load ptr, ptr %vfn13, align 8
  %call15 = invoke noundef ptr %16(ptr noundef nonnull align 8 dereferenceable(16) %this1, i32 noundef %14, ptr noundef %15)
          to label %invoke.cont14 unwind label %lpad

invoke.cont14:                                    ; preds = %while.end
  store ptr %call15, ptr %lbe, align 8
  %17 = load ptr, ptr %lbe, align 8
  %cmp16 = icmp ne ptr %17, null
  br i1 %cmp16, label %if.then17, label %if.end21

if.then17:                                        ; preds = %invoke.cont14
  %fEngines18 = getelementptr inbounds %"class.icu_75::ICULanguageBreakFactory", ptr %this1, i32 0, i32 1
  %18 = load ptr, ptr %fEngines18, align 8
  %19 = load ptr, ptr %lbe, align 8
  %call20 = invoke noundef ptr @_ZN6icu_756UStack4pushEPvR10UErrorCode(ptr noundef nonnull align 8 dereferenceable(40) %18, ptr noundef %19, ptr noundef nonnull align 4 dereferenceable(4) %status)
          to label %invoke.cont19 unwind label %lpad

invoke.cont19:                                    ; preds = %if.then17
  br label %if.end21

if.end21:                                         ; preds = %invoke.cont19, %invoke.cont14
  %20 = load i32, ptr %status, align 4
  %call23 = invoke noundef signext i8 @_ZL9U_SUCCESS10UErrorCode(i32 noundef %20)
          to label %invoke.cont22 unwind label %lpad

invoke.cont22:                                    ; preds = %if.end21
  %tobool24 = icmp ne i8 %call23, 0
  br i1 %tobool24, label %cond.true, label %cond.false

cond.true:                                        ; preds = %invoke.cont22
  %21 = load ptr, ptr %lbe, align 8
  br label %cond.end

cond.false:                                       ; preds = %invoke.cont22
  br label %cond.end

cond.end:                                         ; preds = %cond.false, %cond.true
  %cond = phi ptr [ %21, %cond.true ], [ null, %cond.false ]
  store ptr %cond, ptr %retval, align 8
  store i32 1, ptr %cleanup.dest.slot, align 4
  br label %cleanup

cleanup:                                          ; preds = %cond.end, %if.then10
  call void @_ZN6icu_755MutexD2Ev(ptr noundef nonnull align 8 dereferenceable(8) %m) #8
  br label %return

return:                                           ; preds = %cleanup, %if.then
  %22 = load ptr, ptr %retval, align 8
  ret ptr %22

eh.resume:                                        ; preds = %lpad
  %exn = load ptr, ptr %exn.slot, align 8
  %sel = load i32, ptr %ehselector.slot, align 4
  %lpad.val = insertvalue { ptr, i32 } poison, ptr %exn, 0
  %lpad.val25 = insertvalue { ptr, i32 } %lpad.val, i32 %sel, 1
  resume { ptr, i32 } %lpad.val25
}