; Function Attrs: mustprogress uwtable
define noundef ptr @_ZN6icu_7523ICULanguageBreakFactory12getEngineForEiPKc(ptr noundef nonnull align 8 dereferenceable(16) %this, i32 noundef %c, ptr noundef %locale) unnamed_addr #1 align 2 personality ptr @__gxx_personality_v0 {
entry:
  %status = alloca i32, align 4
  store i32 0, ptr %status, align 4
  call void @_ZN6icu_7523ICULanguageBreakFactory13ensureEnginesER10UErrorCode(ptr noundef nonnull align 8 dereferenceable(16) %this, ptr noundef nonnull align 4 dereferenceable(4) %status)
  %0 = load i32, ptr %status, align 4
  %cmp.i = icmp slt i32 %0, 1
  br i1 %cmp.i, label %if.end, label %return

if.end:                                           ; preds = %entry
  call void @umtx_lock_75(ptr noundef nonnull @_ZZN6icu_7523ICULanguageBreakFactory12getEngineForEiPKcE17gBreakEngineMutex)
  %fEngines = getelementptr inbounds i8, ptr %this, i64 8
  %1 = load ptr, ptr %fEngines, align 8
  %count.i = getelementptr inbounds i8, ptr %1, i64 8
  %2 = load i32, ptr %count.i, align 8
  %cmp18 = icmp sgt i32 %2, 0
  br i1 %cmp18, label %while.body, label %while.end

while.body:                                       ; preds = %if.end, %if.end11
  %dec19.in = phi i32 [ %dec19, %if.end11 ], [ %2, %if.end ]
  %dec19 = add nsw i32 %dec19.in, -1
  %3 = load ptr, ptr %fEngines, align 8
  %call5 = invoke noundef ptr @_ZNK6icu_757UVector9elementAtEi(ptr noundef nonnull align 8 dereferenceable(40) %3, i32 noundef %dec19)
          to label %invoke.cont4 unwind label %lpad.loopexit

invoke.cont4:                                     ; preds = %while.body
  %cmp6.not = icmp eq ptr %call5, null
  br i1 %cmp6.not, label %if.end11, label %land.lhs.true

land.lhs.true:                                    ; preds = %invoke.cont4
  %vtable = load ptr, ptr %call5, align 8
  %vfn = getelementptr inbounds i8, ptr %vtable, i64 24
  %4 = load ptr, ptr %vfn, align 8
  %call8 = invoke noundef signext i8 %4(ptr noundef nonnull align 8 dereferenceable(8) %call5, i32 noundef %c, ptr noundef %locale)
          to label %invoke.cont7 unwind label %lpad.loopexit

invoke.cont7:                                     ; preds = %land.lhs.true
  %tobool9.not = icmp eq i8 %call8, 0
  br i1 %tobool9.not, label %if.end11, label %cleanup

lpad.loopexit:                                    ; preds = %while.body, %land.lhs.true
  %lpad.loopexit15 = landingpad { ptr, i32 }
          cleanup
  br label %lpad

lpad.loopexit.split-lp:                           ; preds = %while.end, %if.then.i, %if.else.i
  %lpad.loopexit.split-lp16 = landingpad { ptr, i32 }
          cleanup
  br label %lpad

lpad:                                             ; preds = %lpad.loopexit.split-lp, %lpad.loopexit
  %lpad.phi = phi { ptr, i32 } [ %lpad.loopexit15, %lpad.loopexit ], [ %lpad.loopexit.split-lp16, %lpad.loopexit.split-lp ]
  invoke void @umtx_unlock_75(ptr noundef nonnull @_ZZN6icu_7523ICULanguageBreakFactory12getEngineForEiPKcE17gBreakEngineMutex)
          to label %_ZN6icu_755MutexD2Ev.exit unwind label %terminate.lpad.i

terminate.lpad.i:                                 ; preds = %lpad
  %5 = landingpad { ptr, i32 }
          catch ptr null
  %6 = extractvalue { ptr, i32 } %5, 0
  call void @__clang_call_terminate(ptr %6) #15
  unreachable

_ZN6icu_755MutexD2Ev.exit:                        ; preds = %lpad
  resume { ptr, i32 } %lpad.phi

if.end11:                                         ; preds = %invoke.cont7, %invoke.cont4
  %cmp = icmp ugt i32 %dec19.in, 1
  br i1 %cmp, label %while.body, label %while.end, !llvm.loop !6

while.end:                                        ; preds = %if.end11, %if.end
  %vtable12 = load ptr, ptr %this, align 8
  %vfn13 = getelementptr inbounds i8, ptr %vtable12, i64 32
  %7 = load ptr, ptr %vfn13, align 8
  %call15 = invoke noundef ptr %7(ptr noundef nonnull align 8 dereferenceable(16) %this, i32 noundef %c, ptr noundef %locale)
          to label %invoke.cont14 unwind label %lpad.loopexit.split-lp

invoke.cont14:                                    ; preds = %while.end
  %cmp16.not = icmp eq ptr %call15, null
  br i1 %cmp16.not, label %if.end21, label %if.then17

if.then17:                                        ; preds = %invoke.cont14
  %8 = load ptr, ptr %fEngines, align 8
  %deleter.i.i = getelementptr inbounds i8, ptr %8, i64 24
  %9 = load ptr, ptr %deleter.i.i, align 8
  %cmp.i.not.i = icmp eq ptr %9, null
  br i1 %cmp.i.not.i, label %if.else.i, label %if.then.i

if.then.i:                                        ; preds = %if.then17
  invoke void @_ZN6icu_757UVector12adoptElementEPvR10UErrorCode(ptr noundef nonnull align 8 dereferenceable(40) %8, ptr noundef nonnull %call15, ptr noundef nonnull align 4 dereferenceable(4) %status)
          to label %if.end21 unwind label %lpad.loopexit.split-lp

if.else.i:                                        ; preds = %if.then17
  invoke void @_ZN6icu_757UVector10addElementEPvR10UErrorCode(ptr noundef nonnull align 8 dereferenceable(40) %8, ptr noundef nonnull %call15, ptr noundef nonnull align 4 dereferenceable(4) %status)
          to label %if.end21 unwind label %lpad.loopexit.split-lp

if.end21:                                         ; preds = %if.then.i, %if.else.i, %invoke.cont14
  %10 = load i32, ptr %status, align 4
  %cmp.i10 = icmp sgt i32 %10, 0
  %cond = select i1 %cmp.i10, ptr null, ptr %call15
  br label %cleanup

cleanup:                                          ; preds = %invoke.cont7, %if.end21
  %retval.0 = phi ptr [ %cond, %if.end21 ], [ %call5, %invoke.cont7 ]
  invoke void @umtx_unlock_75(ptr noundef nonnull @_ZZN6icu_7523ICULanguageBreakFactory12getEngineForEiPKcE17gBreakEngineMutex)
          to label %return unwind label %terminate.lpad.i12

terminate.lpad.i12:                               ; preds = %cleanup
  %11 = landingpad { ptr, i32 }
          catch ptr null
  %12 = extractvalue { ptr, i32 } %11, 0
  call void @__clang_call_terminate(ptr %12) #15
  unreachable

return:                                           ; preds = %cleanup, %entry
  %retval.1 = phi ptr [ null, %entry ], [ %retval.0, %cleanup ]
  ret ptr %retval.1
}